target datalayout = "e-m:e-p270:32:32-p271:32:32-p272:64:64-i64:64-i128:128-f80:128-n8:16:32:64-S128"
target triple = "x86_64-pc-linux-gnu"

@.str.16 = private unnamed_addr constant [8 x i8] c"file://\00", align 1
@.str.20 = private unnamed_addr constant [2 x i8] c"w\00", align 1
@.str.21 = private unnamed_addr constant [36 x i8] c"Unable to create file %s because %s\00", align 1
@.str.22 = private unnamed_addr constant [26 x i8] c"Unable to find uid for %s\00", align 1
@.str.23 = private unnamed_addr constant [26 x i8] c"Unable to find gid for %s\00", align 1
@.str.24 = private unnamed_addr constant [38 x i8] c"Unknown option %d for stream_metadata\00", align 1
@.str.25 = private unnamed_addr constant [21 x i8] c"Operation failed: %s\00", align 1

; Function Attrs: nounwind uwtable
define internal i32 @php_plain_files_metadata(ptr noundef %0, ptr noundef %1, i32 noundef %2, ptr noundef %3, ptr noundef %4) #0 {
  %6 = alloca i32, align 4
  %7 = alloca ptr, align 8
  %8 = alloca ptr, align 8
  %9 = alloca i32, align 4
  %10 = alloca ptr, align 8
  %11 = alloca ptr, align 8
  %12 = alloca ptr, align 8
  %13 = alloca i32, align 4
  %14 = alloca i32, align 4
  %15 = alloca i32, align 4
  %16 = alloca i32, align 4
  %17 = alloca i32, align 4
  %18 = alloca ptr, align 8
  store ptr %0, ptr %7, align 8, !tbaa !71
  store ptr %1, ptr %8, align 8, !tbaa !4
  store i32 %2, ptr %9, align 4, !tbaa !12
  store ptr %3, ptr %10, align 8, !tbaa !31
  store ptr %4, ptr %11, align 8, !tbaa !72
  call void @llvm.lifetime.start.p0(i64 8, ptr %12) #13
  call void @llvm.lifetime.start.p0(i64 4, ptr %13) #13
  call void @llvm.lifetime.start.p0(i64 4, ptr %14) #13
  call void @llvm.lifetime.start.p0(i64 4, ptr %15) #13
  call void @llvm.lifetime.start.p0(i64 4, ptr %16) #13
  store i32 0, ptr %16, align 4, !tbaa !12
  %19 = load ptr, ptr %8, align 8, !tbaa !4
  %20 = call i32 @strncasecmp(ptr noundef %19, ptr noundef @.str.16, i64 noundef 7) #14
  %21 = icmp eq i32 %20, 0
  br i1 %21, label %22, label %25

22:                                               ; preds = %5
  %23 = load ptr, ptr %8, align 8, !tbaa !4
  %24 = getelementptr inbounds nuw i8, ptr %23, i64 7
  store ptr %24, ptr %8, align 8, !tbaa !4
  br label %25

25:                                               ; preds = %22, %5
  %26 = load ptr, ptr %8, align 8, !tbaa !4
  %27 = call i32 @php_check_open_basedir(ptr noundef %26)
  %28 = icmp ne i32 %27, 0
  br i1 %28, label %29, label %30

29:                                               ; preds = %25
  store i32 0, ptr %6, align 4
  store i32 1, ptr %17, align 4
  br label %114

30:                                               ; preds = %25
  %31 = load i32, ptr %9, align 4, !tbaa !12
  switch i32 %31, label %103 [
    i32 1, label %32
    i32 2, label %58
    i32 3, label %58
    i32 5, label %77
    i32 4, label %77
    i32 6, label %96
  ]

32:                                               ; preds = %30
  %33 = load ptr, ptr %10, align 8, !tbaa !31
  store ptr %33, ptr %12, align 8, !tbaa !84
  %34 = load ptr, ptr %8, align 8, !tbaa !4
  %35 = call i32 @access(ptr noundef %34, i32 noundef 0) #13
  %36 = icmp ne i32 %35, 0
  br i1 %36, label %37, label %54

37:                                               ; preds = %32
  call void @llvm.lifetime.start.p0(i64 8, ptr %18) #13
  %38 = load ptr, ptr %8, align 8, !tbaa !4
  %39 = call noalias ptr @fopen(ptr noundef %38, ptr noundef @.str.20)
  store ptr %39, ptr %18, align 8, !tbaa !51
  %40 = load ptr, ptr %18, align 8, !tbaa !51
  %41 = icmp eq ptr %40, null
  br i1 %41, label %42, label %48

42:                                               ; preds = %37
  %43 = load ptr, ptr %8, align 8, !tbaa !4
  %44 = load ptr, ptr %8, align 8, !tbaa !4
  %45 = call ptr @__errno_location() #16
  %46 = load i32, ptr %45, align 4, !tbaa !12
  %47 = call ptr @strerror(i32 noundef %46) #13
  call void (ptr, ptr, i32, ptr, ...) @php_error_docref1(ptr noundef null, ptr noundef %43, i32 noundef 2, ptr noundef @.str.21, ptr noundef %44, ptr noundef %47)
  store i32 0, ptr %6, align 4
  store i32 1, ptr %17, align 4
  br label %51

48:                                               ; preds = %37
  %49 = load ptr, ptr %18, align 8, !tbaa !51
  %50 = call i32 @fclose(ptr noundef %49)
  store i32 0, ptr %17, align 4
  br label %51

51:                                               ; preds = %48, %42
  call void @llvm.lifetime.end.p0(i64 8, ptr %18) #13
  %52 = load i32, ptr %17, align 4
  switch i32 %52, label %114 [
    i32 0, label %53
  ]

53:                                               ; preds = %51
  br label %54

54:                                               ; preds = %53, %32
  %55 = load ptr, ptr %8, align 8, !tbaa !4
  %56 = load ptr, ptr %12, align 8, !tbaa !84
  %57 = call i32 @utime(ptr noundef %55, ptr noundef %56) #13
  store i32 %57, ptr %16, align 4, !tbaa !12
  br label %105

58:                                               ; preds = %30, %30
  %59 = load i32, ptr %9, align 4, !tbaa !12
  %60 = icmp eq i32 %59, 2
  br i1 %60, label %61, label %69

61:                                               ; preds = %58
  %62 = load ptr, ptr %10, align 8, !tbaa !31
  %63 = call i32 @php_get_uid_by_name(ptr noundef %62, ptr noundef %13)
  %64 = icmp ne i32 %63, 0
  br i1 %64, label %65, label %68

65:                                               ; preds = %61
  %66 = load ptr, ptr %8, align 8, !tbaa !4
  %67 = load ptr, ptr %10, align 8, !tbaa !31
  call void (ptr, ptr, i32, ptr, ...) @php_error_docref1(ptr noundef null, ptr noundef %66, i32 noundef 2, ptr noundef @.str.22, ptr noundef %67)
  store i32 0, ptr %6, align 4
  store i32 1, ptr %17, align 4
  br label %114

68:                                               ; preds = %61
  br label %73

69:                                               ; preds = %58
  %70 = load ptr, ptr %10, align 8, !tbaa !31
  %71 = load i64, ptr %70, align 8, !tbaa !52
  %72 = trunc i64 %71 to i32
  store i32 %72, ptr %13, align 4, !tbaa !12
  br label %73

73:                                               ; preds = %69, %68
  %74 = load ptr, ptr %8, align 8, !tbaa !4
  %75 = load i32, ptr %13, align 4, !tbaa !12
  %76 = call i32 @chown(ptr noundef %74, i32 noundef %75, i32 noundef -1) #13
  store i32 %76, ptr %16, align 4, !tbaa !12
  br label %105

77:                                               ; preds = %30, %30
  %78 = load i32, ptr %9, align 4, !tbaa !12
  %79 = icmp eq i32 %78, 4
  br i1 %79, label %80, label %88

80:                                               ; preds = %77
  %81 = load ptr, ptr %10, align 8, !tbaa !31
  %82 = call i32 @php_get_gid_by_name(ptr noundef %81, ptr noundef %14)
  %83 = icmp ne i32 %82, 0
  br i1 %83, label %84, label %87

84:                                               ; preds = %80
  %85 = load ptr, ptr %8, align 8, !tbaa !4
  %86 = load ptr, ptr %10, align 8, !tbaa !31
  call void (ptr, ptr, i32, ptr, ...) @php_error_docref1(ptr noundef null, ptr noundef %85, i32 noundef 2, ptr noundef @.str.23, ptr noundef %86)
  store i32 0, ptr %6, align 4
  store i32 1, ptr %17, align 4
  br label %114

87:                                               ; preds = %80
  br label %92

88:                                               ; preds = %77
  %89 = load ptr, ptr %10, align 8, !tbaa !31
  %90 = load i64, ptr %89, align 8, !tbaa !52
  %91 = trunc i64 %90 to i32
  store i32 %91, ptr %14, align 4, !tbaa !12
  br label %92

92:                                               ; preds = %88, %87
  %93 = load ptr, ptr %8, align 8, !tbaa !4
  %94 = load i32, ptr %14, align 4, !tbaa !12
  %95 = call i32 @chown(ptr noundef %93, i32 noundef -1, i32 noundef %94) #13
  store i32 %95, ptr %16, align 4, !tbaa !12
  br label %105

96:                                               ; preds = %30
  %97 = load ptr, ptr %10, align 8, !tbaa !31
  %98 = load i64, ptr %97, align 8, !tbaa !52
  %99 = trunc i64 %98 to i32
  store i32 %99, ptr %15, align 4, !tbaa !12
  %100 = load ptr, ptr %8, align 8, !tbaa !4
  %101 = load i32, ptr %15, align 4, !tbaa !12
  %102 = call i32 @chmod(ptr noundef %100, i32 noundef %101) #13
  store i32 %102, ptr %16, align 4, !tbaa !12
  br label %105

103:                                              ; preds = %30
  %104 = load i32, ptr %9, align 4, !tbaa !12
  call void (ptr, ...) @zend_value_error(ptr noundef @.str.24, i32 noundef %104)
  store i32 0, ptr %6, align 4
  store i32 1, ptr %17, align 4
  br label %114

105:                                              ; preds = %96, %92, %73, %54
  %106 = load i32, ptr %16, align 4, !tbaa !12
  %107 = icmp eq i32 %106, -1
  br i1 %107, label %108, label %113

108:                                              ; preds = %105
  %109 = load ptr, ptr %8, align 8, !tbaa !4
  %110 = call ptr @__errno_location() #16
  %111 = load i32, ptr %110, align 4, !tbaa !12
  %112 = call ptr @strerror(i32 noundef %111) #13
  call void (ptr, ptr, i32, ptr, ...) @php_error_docref1(ptr noundef null, ptr noundef %109, i32 noundef 2, ptr noundef @.str.25, ptr noundef %112)
  store i32 0, ptr %6, align 4
  store i32 1, ptr %17, align 4
  br label %114

113:                                              ; preds = %105
  call void @php_clear_stat_cache(i1 noundef zeroext false, ptr noundef null, i64 noundef 0)
  store i32 1, ptr %6, align 4
  store i32 1, ptr %17, align 4
  br label %114

114:                                              ; preds = %113, %108, %103, %84, %65, %51, %29
  call void @llvm.lifetime.end.p0(i64 4, ptr %16) #13
  call void @llvm.lifetime.end.p0(i64 4, ptr %15) #13
  call void @llvm.lifetime.end.p0(i64 4, ptr %14) #13
  call void @llvm.lifetime.end.p0(i64 4, ptr %13) #13
  call void @llvm.lifetime.end.p0(i64 8, ptr %12) #13
  %115 = load i32, ptr %6, align 4
  ret i32 %115
}