; Function Attrs: nounwind uwtable
define internal range(i32 0, 2) i32 @php_plain_files_metadata(ptr readnone captures(none) %0, ptr noundef %1, i32 noundef %2, ptr noundef %3, ptr readnone captures(none) %4) #3 {
  %6 = alloca i32, align 4
  %7 = alloca i32, align 4
  call void @llvm.lifetime.start.p0(i64 4, ptr nonnull %6) #17
  call void @llvm.lifetime.start.p0(i64 4, ptr nonnull %7) #17
  %8 = tail call i32 @strncasecmp(ptr noundef %1, ptr noundef nonnull @.str.16, i64 noundef 7) #16
  %9 = icmp eq i32 %8, 0
  %spec.select.idx = select i1 %9, i64 7, i64 0
  %spec.select = getelementptr inbounds nuw i8, ptr %1, i64 %spec.select.idx
  %10 = tail call i32 @php_check_open_basedir(ptr noundef %spec.select) #17
  %.not = icmp eq i32 %10, 0
  br i1 %.not, label %11, label %53

11:                                               ; preds = %5
  switch i32 %2, label %45 [
    i32 1, label %12
    i32 6, label %41
    i32 3, label %26
    i32 2, label %23
    i32 4, label %32
    i32 5, label %35
  ]

12:                                               ; preds = %11
  %13 = tail call i32 @access(ptr noundef %spec.select, i32 noundef 0) #17
  %.not38 = icmp eq i32 %13, 0
  br i1 %.not38, label %21, label %14

14:                                               ; preds = %12
  %15 = tail call noalias ptr @fopen(ptr noundef %spec.select, ptr noundef nonnull @.str.20)
  %.not39 = icmp eq ptr %15, null
  br i1 %.not39, label %.thread, label %19

.thread:                                          ; preds = %14
  %16 = tail call ptr @__errno_location() #19
  %17 = load i32, ptr %16, align 4, !tbaa !7
  %18 = tail call ptr @strerror(i32 noundef %17) #17
  tail call void (ptr, ptr, i32, ptr, ...) @php_error_docref1(ptr noundef null, ptr noundef %spec.select, i32 noundef 2, ptr noundef nonnull @.str.21, ptr noundef %spec.select, ptr noundef %18) #17
  br label %53

19:                                               ; preds = %14
  %20 = tail call i32 @fclose(ptr noundef nonnull %15)
  br label %21

21:                                               ; preds = %19, %12
  %22 = tail call i32 @utime(ptr noundef %spec.select, ptr noundef %3) #17
  br label %46

23:                                               ; preds = %11
  %24 = call i32 @php_get_uid_by_name(ptr noundef %3, ptr noundef nonnull %6) #17
  %.not37 = icmp eq i32 %24, 0
  br i1 %.not37, label %._crit_edge40, label %25

._crit_edge40:                                    ; preds = %23
  %.pre41 = load i32, ptr %6, align 4, !tbaa !7
  br label %29

25:                                               ; preds = %23
  call void (ptr, ptr, i32, ptr, ...) @php_error_docref1(ptr noundef null, ptr noundef %spec.select, i32 noundef 2, ptr noundef nonnull @.str.22, ptr noundef %3) #17
  br label %53

26:                                               ; preds = %11
  %27 = load i64, ptr %3, align 8, !tbaa !43
  %28 = trunc i64 %27 to i32
  store i32 %28, ptr %6, align 4, !tbaa !7
  br label %29

29:                                               ; preds = %._crit_edge40, %26
  %30 = phi i32 [ %.pre41, %._crit_edge40 ], [ %28, %26 ]
  %31 = call i32 @chown(ptr noundef %spec.select, i32 noundef %30, i32 noundef -1) #17
  br label %46

32:                                               ; preds = %11
  %33 = call i32 @php_get_gid_by_name(ptr noundef %3, ptr noundef nonnull %7) #17
  %.not36 = icmp eq i32 %33, 0
  br i1 %.not36, label %._crit_edge, label %34

._crit_edge:                                      ; preds = %32
  %.pre = load i32, ptr %7, align 4, !tbaa !7
  br label %38

34:                                               ; preds = %32
  call void (ptr, ptr, i32, ptr, ...) @php_error_docref1(ptr noundef null, ptr noundef %spec.select, i32 noundef 2, ptr noundef nonnull @.str.23, ptr noundef %3) #17
  br label %53

35:                                               ; preds = %11
  %36 = load i64, ptr %3, align 8, !tbaa !43
  %37 = trunc i64 %36 to i32
  store i32 %37, ptr %7, align 4, !tbaa !7
  br label %38

38:                                               ; preds = %._crit_edge, %35
  %39 = phi i32 [ %.pre, %._crit_edge ], [ %37, %35 ]
  %40 = call i32 @chown(ptr noundef %spec.select, i32 noundef -1, i32 noundef %39) #17
  br label %46

41:                                               ; preds = %11
  %42 = load i64, ptr %3, align 8, !tbaa !43
  %43 = trunc i64 %42 to i32
  %44 = tail call i32 @chmod(ptr noundef %spec.select, i32 noundef %43) #17
  br label %46

45:                                               ; preds = %11
  tail call void (ptr, ...) @zend_value_error(ptr noundef nonnull @.str.24, i32 noundef %2) #17
  br label %53

46:                                               ; preds = %41, %38, %29, %21
  %.033 = phi i32 [ %44, %41 ], [ %40, %38 ], [ %31, %29 ], [ %22, %21 ]
  %47 = icmp eq i32 %.033, -1
  br i1 %47, label %48, label %52

48:                                               ; preds = %46
  %49 = tail call ptr @__errno_location() #19
  %50 = load i32, ptr %49, align 4, !tbaa !7
  %51 = call ptr @strerror(i32 noundef %50) #17
  call void (ptr, ptr, i32, ptr, ...) @php_error_docref1(ptr noundef null, ptr noundef %spec.select, i32 noundef 2, ptr noundef nonnull @.str.25, ptr noundef %51) #17
  br label %53

52:                                               ; preds = %46
  call void @php_clear_stat_cache(i1 noundef zeroext false, ptr noundef null, i64 noundef 0) #17
  br label %53

53:                                               ; preds = %.thread, %5, %52, %48, %45, %34, %25
  %.0 = phi i32 [ 0, %45 ], [ 0, %48 ], [ 1, %52 ], [ 0, %34 ], [ 0, %25 ], [ 0, %5 ], [ 0, %.thread ]
  call void @llvm.lifetime.end.p0(i64 4, ptr nonnull %7) #17
  call void @llvm.lifetime.end.p0(i64 4, ptr nonnull %6) #17
  ret i32 %.0
}